target datalayout = "e-m:e-p270:32:32-p271:32:32-p272:64:64-i64:64-i128:128-f80:128-n8:16:32:64-S128"
target triple = "x86_64-pc-linux-gnu"

%"class.std::vector.5" = type { %"struct.std::_Vector_base.6" }
%"struct.std::_Vector_base.6" = type { %"struct.std::_Vector_base<pxrInternal_v0_24__pxrReserved__::TfToken, std::allocator<pxrInternal_v0_24__pxrReserved__::TfToken>>::_Vector_impl" }
%"struct.std::_Vector_base<pxrInternal_v0_24__pxrReserved__::TfToken, std::allocator<pxrInternal_v0_24__pxrReserved__::TfToken>>::_Vector_impl" = type { %"struct.std::_Vector_base<pxrInternal_v0_24__pxrReserved__::TfToken, std::allocator<pxrInternal_v0_24__pxrReserved__::TfToken>>::_Vector_impl_data" }
%"struct.std::_Vector_base<pxrInternal_v0_24__pxrReserved__::TfToken, std::allocator<pxrInternal_v0_24__pxrReserved__::TfToken>>::_Vector_impl_data" = type { ptr, ptr, ptr }
%"class.pxrInternal_v0_24__pxrReserved__::TfRefPtr.12" = type { ptr }
%"class.std::shared_ptr" = type { %"class.std::__shared_ptr" }
%"class.std::__shared_ptr" = type { ptr, %"class.std::__shared_count" }
%"class.std::__shared_count" = type { ptr }
%"class.pxrInternal_v0_24__pxrReserved__::SdfPath" = type { %"struct.pxrInternal_v0_24__pxrReserved__::Sdf_PathNodeHandleImpl", %"struct.pxrInternal_v0_24__pxrReserved__::Sdf_PathNodeHandleImpl.13" }
%"struct.pxrInternal_v0_24__pxrReserved__::Sdf_PathNodeHandleImpl" = type { %"struct.pxrInternal_v0_24__pxrReserved__::Sdf_Pool<pxrInternal_v0_24__pxrReserved__::Sdf_PathPrimTag, 24, 8>::Handle" }
%"struct.pxrInternal_v0_24__pxrReserved__::Sdf_Pool<pxrInternal_v0_24__pxrReserved__::Sdf_PathPrimTag, 24, 8>::Handle" = type { i32 }
%"struct.pxrInternal_v0_24__pxrReserved__::Sdf_PathNodeHandleImpl.13" = type { %"struct.pxrInternal_v0_24__pxrReserved__::Sdf_Pool<pxrInternal_v0_24__pxrReserved__::Sdf_PathPropTag, 24, 8>::Handle" }
%"struct.pxrInternal_v0_24__pxrReserved__::Sdf_Pool<pxrInternal_v0_24__pxrReserved__::Sdf_PathPropTag, 24, 8>::Handle" = type { i32 }
%"class.pxrInternal_v0_24__pxrReserved__::HdContainerDataSource" = type { %"class.pxrInternal_v0_24__pxrReserved__::HdDataSourceBase" }
%"class.pxrInternal_v0_24__pxrReserved__::HdDataSourceBase" = type { ptr }
%"class.pxrInternal_v0_24__pxrReserved__::UsdImagingDirectMaterialBindingsSchema" = type { %"class.pxrInternal_v0_24__pxrReserved__::HdSchema" }
%"class.pxrInternal_v0_24__pxrReserved__::HdSchema" = type { %"class.std::shared_ptr" }
%"class.pxrInternal_v0_24__pxrReserved__::(anonymous namespace)::_HdMaterialBindingsDataSource" = type { %"class.pxrInternal_v0_24__pxrReserved__::HdContainerDataSource", %"class.std::shared_ptr", %"class.pxrInternal_v0_24__pxrReserved__::TfRefPtr.12", %"class.pxrInternal_v0_24__pxrReserved__::SdfPath" }

; Function Attrs: mustprogress uwtable
define internal void @_ZNK32pxrInternal_v0_24__pxrReserved__12_GLOBAL__N_129_HdMaterialBindingsDataSource34_GetAvailableDirectBindingPurposesEv(ptr dead_on_unwind noalias writable sret(%"class.std::vector.5") align 8 %0, ptr noundef nonnull align 8 dereferenceable(40) %1) #0 align 2 personality ptr @__gxx_personality_v0 {
  %3 = alloca ptr, align 8
  %4 = alloca ptr, align 8
  %5 = alloca %"class.pxrInternal_v0_24__pxrReserved__::UsdImagingDirectMaterialBindingsSchema", align 8
  %6 = alloca ptr, align 8
  %7 = alloca i32, align 4
  store ptr %0, ptr %3, align 8
  store ptr %1, ptr %4, align 8
  %8 = load ptr, ptr %4, align 8
  %9 = getelementptr inbounds nuw %"class.pxrInternal_v0_24__pxrReserved__::(anonymous namespace)::_HdMaterialBindingsDataSource", ptr %8, i32 0, i32 1
  call void @_ZN32pxrInternal_v0_24__pxrReserved__38UsdImagingDirectMaterialBindingsSchema13GetFromParentERKSt10shared_ptrINS_21HdContainerDataSourceEE(ptr dead_on_unwind writable sret(%"class.pxrInternal_v0_24__pxrReserved__::UsdImagingDirectMaterialBindingsSchema") align 8 %5, ptr noundef nonnull align 8 dereferenceable(16) %9)
  invoke void @_ZN32pxrInternal_v0_24__pxrReserved__38UsdImagingDirectMaterialBindingsSchema11GetPurposesEv(ptr dead_on_unwind writable sret(%"class.std::vector.5") align 8 %0, ptr noundef nonnull align 8 dereferenceable(16) %5)
          to label %10 unwind label %11

10:                                               ; preds = %2
  call void @_ZN32pxrInternal_v0_24__pxrReserved__38UsdImagingDirectMaterialBindingsSchemaD2Ev(ptr noundef nonnull align 8 dereferenceable(16) %5) #5
  ret void

11:                                               ; preds = %2
  %12 = landingpad { ptr, i32 }
          cleanup
  %13 = extractvalue { ptr, i32 } %12, 0
  store ptr %13, ptr %6, align 8
  %14 = extractvalue { ptr, i32 } %12, 1
  store i32 %14, ptr %7, align 4
  call void @_ZN32pxrInternal_v0_24__pxrReserved__38UsdImagingDirectMaterialBindingsSchemaD2Ev(ptr noundef nonnull align 8 dereferenceable(16) %5) #5
  br label %15

15:                                               ; preds = %11
  %16 = load ptr, ptr %6, align 8
  %17 = load i32, ptr %7, align 4
  %18 = insertvalue { ptr, i32 } poison, ptr %16, 0
  %19 = insertvalue { ptr, i32 } %18, i32 %17, 1
  resume { ptr, i32 } %19
}

; Function Attrs: mustprogress uwtable
define internal void @_ZN32pxrInternal_v0_24__pxrReserved__12_GLOBAL__N_129_HdMaterialBindingsDataSource8GetNamesEv(ptr dead_on_unwind noalias writable sret(%"class.std::vector.5") align 8 %0, ptr noundef nonnull align 8 dereferenceable(40) %1) unnamed_addr #0 align 2 {
  %3 = alloca ptr, align 8
  %4 = alloca ptr, align 8
  store ptr %0, ptr %3, align 8
  store ptr %1, ptr %4, align 8
  %5 = load ptr, ptr %4, align 8
  call void @_ZNK32pxrInternal_v0_24__pxrReserved__12_GLOBAL__N_129_HdMaterialBindingsDataSource34_GetAvailableDirectBindingPurposesEv(ptr dead_on_unwind writable sret(%"class.std::vector.5") align 8 %0, ptr noundef nonnull align 8 dereferenceable(40) %5)
  ret void
}